; Function Attrs: mustprogress nofree norecurse nosync nounwind willreturn memory(readwrite, inaccessiblemem: none) uwtable
define internal void @_ZZN3nla7emonics20set_bound_propagatedERKNS_5monicEEN22set_bound_unpropagated4undoEv(ptr nocapture noundef nonnull readonly align 8 dereferenceable(20) %this) unnamed_addr #5 align 2 {
entry:
  %em = getelementptr inbounds i8, ptr %this, i64 8
  %0 = load ptr, ptr %em, align 8
  %var = getelementptr inbounds i8, ptr %this, i64 16
  %1 = load i32, ptr %var, align 8
  %m_monics.i = getelementptr inbounds i8, ptr %0, i64 128
  %m_var2index.i = getelementptr inbounds i8, ptr %0, i64 136
  %2 = load ptr, ptr %m_var2index.i, align 8
  %idxprom.i.i = zext i32 %1 to i64
  %arrayidx.i.i = getelementptr inbounds i32, ptr %2, i64 %idxprom.i.i
  %3 = load i32, ptr %arrayidx.i.i, align 4
  %4 = load ptr, ptr %m_monics.i, align 8
  %idxprom.i1.i = zext i32 %3 to i64
  %m_bound_propagated.i = getelementptr inbounds %"class.nla::monic", ptr %4, i64 %idxprom.i1.i, i32 6
  store i8 0, ptr %m_bound_propagated.i, align 1
  ret void
}